target datalayout = "e-m:e-p270:32:32-p271:32:32-p272:64:64-i64:64-i128:128-f80:128-n8:16:32:64-S128"
target triple = "x86_64-pc-linux-gnu"

%"class.std::__cxx11::basic_string" = type { %"struct.std::__cxx11::basic_string<char>::_Alloc_hider", i64, %union.anon }
%"struct.std::__cxx11::basic_string<char>::_Alloc_hider" = type { ptr }
%union.anon = type { i64, [8 x i8] }
%"class.std::shared_ptr" = type { %"class.std::__shared_ptr" }
%"class.std::__shared_ptr" = type { ptr, %"class.std::__shared_count" }
%"class.std::__shared_count" = type { ptr }
%"class.open_spiel::coordinated_mp::PenniesState" = type { %"class.open_spiel::State.base", i32, i32, i32 }
%"class.open_spiel::State.base" = type <{ ptr, %"class.std::shared_ptr", i32, i32, %"class.std::vector", i32 }>
%"class.std::vector" = type { %"struct.std::_Vector_base" }
%"struct.std::_Vector_base" = type { %"struct.std::_Vector_base<open_spiel::State::PlayerAction, std::allocator<open_spiel::State::PlayerAction>>::_Vector_impl" }
%"struct.std::_Vector_base<open_spiel::State::PlayerAction, std::allocator<open_spiel::State::PlayerAction>>::_Vector_impl" = type { %"struct.std::_Vector_base<open_spiel::State::PlayerAction, std::allocator<open_spiel::State::PlayerAction>>::_Vector_impl_data" }
%"struct.std::_Vector_base<open_spiel::State::PlayerAction, std::allocator<open_spiel::State::PlayerAction>>::_Vector_impl_data" = type { ptr, ptr, ptr }

@.str.5 = private unnamed_addr constant [148 x i8] c"generated/home/dtcxzyw/WorkSpace/Projects/compilers/llvm-opt-benchmark/bench/openspiel/open_spiel/open_spiel/games/coordinated_mp/coordinated_mp.cc\00", align 1
@.str.6 = private unnamed_addr constant [2 x i8] c":\00", align 1
@.str.7 = private unnamed_addr constant [2 x i8] c" \00", align 1
@.str.8 = private unnamed_addr constant [23 x i8] c"infoset_ == kNoInfoset\00", align 1
@.str.9 = private unnamed_addr constant [10 x i8] c"\0Ainfoset_\00", align 1
@.str.10 = private unnamed_addr constant [4 x i8] c" = \00", align 1
@.str.11 = private unnamed_addr constant [16 x i8] c", kNoInfoset = \00", align 1
@.str.12 = private unnamed_addr constant [22 x i8] c"actionB_ == kNoAction\00", align 1
@.str.13 = private unnamed_addr constant [10 x i8] c"\0AactionB_\00", align 1
@.str.14 = private unnamed_addr constant [15 x i8] c", kNoAction = \00", align 1
@.str.15 = private unnamed_addr constant [13 x i8] c" CHECK_TRUE(\00", align 1
@.str.16 = private unnamed_addr constant [13 x i8] c"IsTerminal()\00", align 1
@.str.17 = private unnamed_addr constant [2 x i8] c")\00", align 1

; Function Attrs: mustprogress uwtable
define noundef i32 @_ZNK10open_spiel14coordinated_mp12PenniesState13CurrentPlayerEv(ptr noundef nonnull align 8 dereferenceable(72) %0) unnamed_addr #4 align 2 personality ptr @__gxx_personality_v0 {
  %2 = alloca i32, align 4
  %3 = alloca ptr, align 8
  %4 = alloca i32, align 4
  %5 = alloca i32, align 4
  %6 = alloca %"class.std::__cxx11::basic_string", align 8
  %7 = alloca i32, align 4
  %8 = alloca ptr, align 8
  %9 = alloca i32, align 4
  %10 = alloca i32, align 4
  %11 = alloca i32, align 4
  %12 = alloca %"class.std::__cxx11::basic_string", align 8
  %13 = alloca i32, align 4
  %14 = alloca i32, align 4
  %15 = alloca i32, align 4
  %16 = alloca %"class.std::__cxx11::basic_string", align 8
  %17 = alloca i32, align 4
  %18 = alloca %"class.std::__cxx11::basic_string", align 8
  %19 = alloca i32, align 4
  store ptr %0, ptr %3, align 8
  %20 = load ptr, ptr %3, align 8
  %21 = getelementptr inbounds nuw %"class.open_spiel::coordinated_mp::PenniesState", ptr %20, i32 0, i32 1
  %22 = load i32, ptr %21, align 4
  %23 = icmp eq i32 %22, -1
  br i1 %23, label %24, label %53

24:                                               ; preds = %1
  br label %25

25:                                               ; preds = %24
  %26 = getelementptr inbounds nuw %"class.open_spiel::coordinated_mp::PenniesState", ptr %20, i32 0, i32 3
  %27 = load i32, ptr %26, align 4
  store i32 %27, ptr %4, align 4
  store i32 -1, ptr %5, align 4
  %28 = load i32, ptr %4, align 4
  %29 = load i32, ptr %5, align 4
  %30 = icmp eq i32 %28, %29
  br i1 %30, label %37, label %31

31:                                               ; preds = %25
  store i32 125, ptr %7, align 4
  call void @_ZN10open_spiel8internal11SpielStrCatIJRA148_KcRA2_S2_iS6_RA23_S2_RA10_S2_RA4_S2_RNS_14coordinated_mp15InfosetPositionERA16_S2_SF_EEENSt7__cxx1112basic_stringIcSt11char_traitsIcESaIcEEEDpOT_(ptr dead_on_unwind writable sret(%"class.std::__cxx11::basic_string") align 8 %6, ptr noundef nonnull align 1 dereferenceable(148) @.str.5, ptr noundef nonnull align 1 dereferenceable(2) @.str.6, ptr noundef nonnull align 4 dereferenceable(4) %7, ptr noundef nonnull align 1 dereferenceable(2) @.str.7, ptr noundef nonnull align 1 dereferenceable(23) @.str.8, ptr noundef nonnull align 1 dereferenceable(10) @.str.9, ptr noundef nonnull align 1 dereferenceable(4) @.str.10, ptr noundef nonnull align 4 dereferenceable(4) %4, ptr noundef nonnull align 1 dereferenceable(16) @.str.11, ptr noundef nonnull align 4 dereferenceable(4) %5)
  invoke void @_ZN10open_spiel15SpielFatalErrorERKNSt7__cxx1112basic_stringIcSt11char_traitsIcESaIcEEE(ptr noundef nonnull align 8 dereferenceable(32) %6) #14
          to label %32 unwind label %33

32:                                               ; preds = %31
  unreachable

33:                                               ; preds = %31
  %34 = landingpad { ptr, i32 }
          cleanup
  %35 = extractvalue { ptr, i32 } %34, 0
  store ptr %35, ptr %8, align 8
  %36 = extractvalue { ptr, i32 } %34, 1
  store i32 %36, ptr %9, align 4
  call void @_ZNSt7__cxx1112basic_stringIcSt11char_traitsIcESaIcEED1Ev(ptr noundef nonnull align 8 dereferenceable(32) %6) #3
  br label %93

37:                                               ; preds = %25
  br label %38

38:                                               ; preds = %37
  br label %39

39:                                               ; preds = %38
  %40 = getelementptr inbounds nuw %"class.open_spiel::coordinated_mp::PenniesState", ptr %20, i32 0, i32 2
  %41 = load i32, ptr %40, align 8
  store i32 %41, ptr %10, align 4
  store i32 -1, ptr %11, align 4
  %42 = load i32, ptr %10, align 4
  %43 = load i32, ptr %11, align 4
  %44 = icmp eq i32 %42, %43
  br i1 %44, label %51, label %45

45:                                               ; preds = %39
  store i32 126, ptr %13, align 4
  call void @_ZN10open_spiel8internal11SpielStrCatIJRA148_KcRA2_S2_iS6_RA22_S2_RA10_S2_RA4_S2_RNS_14coordinated_mp10ActionTypeERA15_S2_SF_EEENSt7__cxx1112basic_stringIcSt11char_traitsIcESaIcEEEDpOT_(ptr dead_on_unwind writable sret(%"class.std::__cxx11::basic_string") align 8 %12, ptr noundef nonnull align 1 dereferenceable(148) @.str.5, ptr noundef nonnull align 1 dereferenceable(2) @.str.6, ptr noundef nonnull align 4 dereferenceable(4) %13, ptr noundef nonnull align 1 dereferenceable(2) @.str.7, ptr noundef nonnull align 1 dereferenceable(22) @.str.12, ptr noundef nonnull align 1 dereferenceable(10) @.str.13, ptr noundef nonnull align 1 dereferenceable(4) @.str.10, ptr noundef nonnull align 4 dereferenceable(4) %10, ptr noundef nonnull align 1 dereferenceable(15) @.str.14, ptr noundef nonnull align 4 dereferenceable(4) %11)
  invoke void @_ZN10open_spiel15SpielFatalErrorERKNSt7__cxx1112basic_stringIcSt11char_traitsIcESaIcEEE(ptr noundef nonnull align 8 dereferenceable(32) %12) #14
          to label %46 unwind label %47

46:                                               ; preds = %45
  unreachable

47:                                               ; preds = %45
  %48 = landingpad { ptr, i32 }
          cleanup
  %49 = extractvalue { ptr, i32 } %48, 0
  store ptr %49, ptr %8, align 8
  %50 = extractvalue { ptr, i32 } %48, 1
  store i32 %50, ptr %9, align 4
  call void @_ZNSt7__cxx1112basic_stringIcSt11char_traitsIcESaIcEED1Ev(ptr noundef nonnull align 8 dereferenceable(32) %12) #3
  br label %93

51:                                               ; preds = %39
  br label %52

52:                                               ; preds = %51
  store i32 0, ptr %2, align 4
  br label %91

53:                                               ; preds = %1
  %54 = getelementptr inbounds nuw %"class.open_spiel::coordinated_mp::PenniesState", ptr %20, i32 0, i32 3
  %55 = load i32, ptr %54, align 4
  %56 = icmp eq i32 %55, -1
  br i1 %56, label %57, label %72

57:                                               ; preds = %53
  br label %58

58:                                               ; preds = %57
  %59 = getelementptr inbounds nuw %"class.open_spiel::coordinated_mp::PenniesState", ptr %20, i32 0, i32 2
  %60 = load i32, ptr %59, align 8
  store i32 %60, ptr %14, align 4
  store i32 -1, ptr %15, align 4
  %61 = load i32, ptr %14, align 4
  %62 = load i32, ptr %15, align 4
  %63 = icmp eq i32 %61, %62
  br i1 %63, label %70, label %64

64:                                               ; preds = %58
  store i32 131, ptr %17, align 4
  call void @_ZN10open_spiel8internal11SpielStrCatIJRA148_KcRA2_S2_iS6_RA22_S2_RA10_S2_RA4_S2_RNS_14coordinated_mp10ActionTypeERA15_S2_SF_EEENSt7__cxx1112basic_stringIcSt11char_traitsIcESaIcEEEDpOT_(ptr dead_on_unwind writable sret(%"class.std::__cxx11::basic_string") align 8 %16, ptr noundef nonnull align 1 dereferenceable(148) @.str.5, ptr noundef nonnull align 1 dereferenceable(2) @.str.6, ptr noundef nonnull align 4 dereferenceable(4) %17, ptr noundef nonnull align 1 dereferenceable(2) @.str.7, ptr noundef nonnull align 1 dereferenceable(22) @.str.12, ptr noundef nonnull align 1 dereferenceable(10) @.str.13, ptr noundef nonnull align 1 dereferenceable(4) @.str.10, ptr noundef nonnull align 4 dereferenceable(4) %14, ptr noundef nonnull align 1 dereferenceable(15) @.str.14, ptr noundef nonnull align 4 dereferenceable(4) %15)
  invoke void @_ZN10open_spiel15SpielFatalErrorERKNSt7__cxx1112basic_stringIcSt11char_traitsIcESaIcEEE(ptr noundef nonnull align 8 dereferenceable(32) %16) #14
          to label %65 unwind label %66

65:                                               ; preds = %64
  unreachable

66:                                               ; preds = %64
  %67 = landingpad { ptr, i32 }
          cleanup
  %68 = extractvalue { ptr, i32 } %67, 0
  store ptr %68, ptr %8, align 8
  %69 = extractvalue { ptr, i32 } %67, 1
  store i32 %69, ptr %9, align 4
  call void @_ZNSt7__cxx1112basic_stringIcSt11char_traitsIcESaIcEED1Ev(ptr noundef nonnull align 8 dereferenceable(32) %16) #3
  br label %93

70:                                               ; preds = %58
  br label %71

71:                                               ; preds = %70
  store i32 -1, ptr %2, align 4
  br label %91

72:                                               ; preds = %53
  %73 = getelementptr inbounds nuw %"class.open_spiel::coordinated_mp::PenniesState", ptr %20, i32 0, i32 2
  %74 = load i32, ptr %73, align 8
  %75 = icmp eq i32 %74, -1
  br i1 %75, label %76, label %77

76:                                               ; preds = %72
  store i32 1, ptr %2, align 4
  br label %91

77:                                               ; preds = %72
  br label %78

78:                                               ; preds = %77
  %79 = load ptr, ptr %20, align 8
  %80 = getelementptr inbounds ptr, ptr %79, i64 11
  %81 = load ptr, ptr %80, align 8
  %82 = call noundef zeroext i1 %81(ptr noundef nonnull align 8 dereferenceable(72) %20)
  %83 = xor i1 %82, true
  br i1 %83, label %84, label %90

84:                                               ; preds = %78
  store i32 138, ptr %19, align 4
  call void @_ZN10open_spiel8internal11SpielStrCatIJRA148_KcRA2_S2_iRA13_S2_S8_S6_EEENSt7__cxx1112basic_stringIcSt11char_traitsIcESaIcEEEDpOT_(ptr dead_on_unwind writable sret(%"class.std::__cxx11::basic_string") align 8 %18, ptr noundef nonnull align 1 dereferenceable(148) @.str.5, ptr noundef nonnull align 1 dereferenceable(2) @.str.6, ptr noundef nonnull align 4 dereferenceable(4) %19, ptr noundef nonnull align 1 dereferenceable(13) @.str.15, ptr noundef nonnull align 1 dereferenceable(13) @.str.16, ptr noundef nonnull align 1 dereferenceable(2) @.str.17)
  invoke void @_ZN10open_spiel15SpielFatalErrorERKNSt7__cxx1112basic_stringIcSt11char_traitsIcESaIcEEE(ptr noundef nonnull align 8 dereferenceable(32) %18) #14
          to label %85 unwind label %86

85:                                               ; preds = %84
  unreachable

86:                                               ; preds = %84
  %87 = landingpad { ptr, i32 }
          cleanup
  %88 = extractvalue { ptr, i32 } %87, 0
  store ptr %88, ptr %8, align 8
  %89 = extractvalue { ptr, i32 } %87, 1
  store i32 %89, ptr %9, align 4
  call void @_ZNSt7__cxx1112basic_stringIcSt11char_traitsIcESaIcEED1Ev(ptr noundef nonnull align 8 dereferenceable(32) %18) #3
  br label %93

90:                                               ; preds = %78
  store i32 -4, ptr %2, align 4
  br label %91

91:                                               ; preds = %90, %76, %71, %52
  %92 = load i32, ptr %2, align 4
  ret i32 %92

93:                                               ; preds = %86, %66, %47, %33
  %94 = load ptr, ptr %8, align 8
  %95 = load i32, ptr %9, align 4
  %96 = insertvalue { ptr, i32 } poison, ptr %94, 0
  %97 = insertvalue { ptr, i32 } %96, i32 %95, 1
  resume { ptr, i32 } %97
}