; Function Attrs: mustprogress uwtable
define noundef range(i32 -4, 2) i32 @_ZNK10open_spiel14coordinated_mp12PenniesState13CurrentPlayerEv(ptr noundef nonnull align 8 dereferenceable(72) %0) unnamed_addr #3 align 2 personality ptr @__gxx_personality_v0 {
  %2 = alloca i32, align 4
  %3 = alloca i32, align 4
  %4 = alloca %"class.std::__cxx11::basic_string", align 8
  %5 = alloca i32, align 4
  %6 = alloca i32, align 4
  %7 = alloca i32, align 4
  %8 = alloca %"class.std::__cxx11::basic_string", align 8
  %9 = alloca i32, align 4
  %10 = alloca i32, align 4
  %11 = alloca i32, align 4
  %12 = alloca %"class.std::__cxx11::basic_string", align 8
  %13 = alloca i32, align 4
  %14 = alloca %"class.std::__cxx11::basic_string", align 8
  %15 = alloca i32, align 4
  %16 = getelementptr inbounds nuw i8, ptr %0, i64 60
  %17 = load i32, ptr %16, align 4
  %18 = icmp eq i32 %17, -1
  %19 = getelementptr inbounds nuw i8, ptr %0, i64 68
  %20 = load i32, ptr %19, align 4
  br i1 %18, label %21, label %35

21:                                               ; preds = %1
  store i32 %20, ptr %2, align 4
  store i32 -1, ptr %3, align 4
  %22 = icmp eq i32 %20, -1
  br i1 %22, label %27, label %23

23:                                               ; preds = %21
  store i32 125, ptr %5, align 4
  call void @_ZN10open_spiel8internal11SpielStrCatIJRA148_KcRA2_S2_iS6_RA23_S2_RA10_S2_RA4_S2_RNS_14coordinated_mp15InfosetPositionERA16_S2_SF_EEENSt7__cxx1112basic_stringIcSt11char_traitsIcESaIcEEEDpOT_(ptr dead_on_unwind nonnull writable sret(%"class.std::__cxx11::basic_string") align 8 %4, ptr noundef nonnull align 1 dereferenceable(148) @.str.5, ptr noundef nonnull align 1 dereferenceable(2) @.str.6, ptr noundef nonnull align 4 dereferenceable(4) %5, ptr noundef nonnull align 1 dereferenceable(2) @.str.7, ptr noundef nonnull align 1 dereferenceable(23) @.str.8, ptr noundef nonnull align 1 dereferenceable(10) @.str.9, ptr noundef nonnull align 1 dereferenceable(4) @.str.10, ptr noundef nonnull align 4 dereferenceable(4) %2, ptr noundef nonnull align 1 dereferenceable(16) @.str.11, ptr noundef nonnull align 4 dereferenceable(4) %3)
  invoke void @_ZN10open_spiel15SpielFatalErrorERKNSt7__cxx1112basic_stringIcSt11char_traitsIcESaIcEEE(ptr noundef nonnull align 8 dereferenceable(32) %4) #23
          to label %24 unwind label %25

24:                                               ; preds = %23
  unreachable

25:                                               ; preds = %23
  %26 = landingpad { ptr, i32 }
          cleanup
  br label %57

27:                                               ; preds = %21
  %28 = getelementptr inbounds nuw i8, ptr %0, i64 64
  %29 = load i32, ptr %28, align 8
  store i32 %29, ptr %6, align 4
  store i32 -1, ptr %7, align 4
  %30 = icmp eq i32 %29, -1
  br i1 %30, label %56, label %31

31:                                               ; preds = %27
  store i32 126, ptr %9, align 4
  call void @_ZN10open_spiel8internal11SpielStrCatIJRA148_KcRA2_S2_iS6_RA22_S2_RA10_S2_RA4_S2_RNS_14coordinated_mp10ActionTypeERA15_S2_SF_EEENSt7__cxx1112basic_stringIcSt11char_traitsIcESaIcEEEDpOT_(ptr dead_on_unwind nonnull writable sret(%"class.std::__cxx11::basic_string") align 8 %8, ptr noundef nonnull align 1 dereferenceable(148) @.str.5, ptr noundef nonnull align 1 dereferenceable(2) @.str.6, ptr noundef nonnull align 4 dereferenceable(4) %9, ptr noundef nonnull align 1 dereferenceable(2) @.str.7, ptr noundef nonnull align 1 dereferenceable(22) @.str.12, ptr noundef nonnull align 1 dereferenceable(10) @.str.13, ptr noundef nonnull align 1 dereferenceable(4) @.str.10, ptr noundef nonnull align 4 dereferenceable(4) %6, ptr noundef nonnull align 1 dereferenceable(15) @.str.14, ptr noundef nonnull align 4 dereferenceable(4) %7)
  invoke void @_ZN10open_spiel15SpielFatalErrorERKNSt7__cxx1112basic_stringIcSt11char_traitsIcESaIcEEE(ptr noundef nonnull align 8 dereferenceable(32) %8) #23
          to label %32 unwind label %33

32:                                               ; preds = %31
  unreachable

33:                                               ; preds = %31
  %34 = landingpad { ptr, i32 }
          cleanup
  br label %57

35:                                               ; preds = %1
  %36 = icmp eq i32 %20, -1
  %37 = getelementptr inbounds nuw i8, ptr %0, i64 64
  %38 = load i32, ptr %37, align 8
  br i1 %36, label %39, label %45

39:                                               ; preds = %35
  store i32 %38, ptr %10, align 4
  store i32 -1, ptr %11, align 4
  %40 = icmp eq i32 %38, -1
  br i1 %40, label %56, label %41

41:                                               ; preds = %39
  store i32 131, ptr %13, align 4
  call void @_ZN10open_spiel8internal11SpielStrCatIJRA148_KcRA2_S2_iS6_RA22_S2_RA10_S2_RA4_S2_RNS_14coordinated_mp10ActionTypeERA15_S2_SF_EEENSt7__cxx1112basic_stringIcSt11char_traitsIcESaIcEEEDpOT_(ptr dead_on_unwind nonnull writable sret(%"class.std::__cxx11::basic_string") align 8 %12, ptr noundef nonnull align 1 dereferenceable(148) @.str.5, ptr noundef nonnull align 1 dereferenceable(2) @.str.6, ptr noundef nonnull align 4 dereferenceable(4) %13, ptr noundef nonnull align 1 dereferenceable(2) @.str.7, ptr noundef nonnull align 1 dereferenceable(22) @.str.12, ptr noundef nonnull align 1 dereferenceable(10) @.str.13, ptr noundef nonnull align 1 dereferenceable(4) @.str.10, ptr noundef nonnull align 4 dereferenceable(4) %10, ptr noundef nonnull align 1 dereferenceable(15) @.str.14, ptr noundef nonnull align 4 dereferenceable(4) %11)
  invoke void @_ZN10open_spiel15SpielFatalErrorERKNSt7__cxx1112basic_stringIcSt11char_traitsIcESaIcEEE(ptr noundef nonnull align 8 dereferenceable(32) %12) #23
          to label %42 unwind label %43

42:                                               ; preds = %41
  unreachable

43:                                               ; preds = %41
  %44 = landingpad { ptr, i32 }
          cleanup
  br label %57

45:                                               ; preds = %35
  %46 = icmp eq i32 %38, -1
  br i1 %46, label %56, label %47

47:                                               ; preds = %45
  %48 = load ptr, ptr %0, align 8
  %49 = getelementptr inbounds nuw i8, ptr %48, i64 88
  %50 = load ptr, ptr %49, align 8
  %51 = tail call noundef zeroext i1 %50(ptr noundef nonnull align 8 dereferenceable(72) %0)
  br i1 %51, label %56, label %52

52:                                               ; preds = %47
  store i32 138, ptr %15, align 4
  call void @_ZN10open_spiel8internal11SpielStrCatIJRA148_KcRA2_S2_iRA13_S2_S8_S6_EEENSt7__cxx1112basic_stringIcSt11char_traitsIcESaIcEEEDpOT_(ptr dead_on_unwind nonnull writable sret(%"class.std::__cxx11::basic_string") align 8 %14, ptr noundef nonnull align 1 dereferenceable(148) @.str.5, ptr noundef nonnull align 1 dereferenceable(2) @.str.6, ptr noundef nonnull align 4 dereferenceable(4) %15, ptr noundef nonnull align 1 dereferenceable(13) @.str.15, ptr noundef nonnull align 1 dereferenceable(13) @.str.16, ptr noundef nonnull align 1 dereferenceable(2) @.str.17)
  invoke void @_ZN10open_spiel15SpielFatalErrorERKNSt7__cxx1112basic_stringIcSt11char_traitsIcESaIcEEE(ptr noundef nonnull align 8 dereferenceable(32) %14) #23
          to label %53 unwind label %54

53:                                               ; preds = %52
  unreachable

54:                                               ; preds = %52
  %55 = landingpad { ptr, i32 }
          cleanup
  br label %57

56:                                               ; preds = %47, %45, %39, %27
  %.04 = phi i32 [ 0, %27 ], [ -1, %39 ], [ 1, %45 ], [ -4, %47 ]
  ret i32 %.04

57:                                               ; preds = %54, %43, %33, %25
  %.sink = phi ptr [ %14, %54 ], [ %12, %43 ], [ %8, %33 ], [ %4, %25 ]
  %.pn = phi { ptr, i32 } [ %55, %54 ], [ %44, %43 ], [ %34, %33 ], [ %26, %25 ]
  call void @_ZNSt7__cxx1112basic_stringIcSt11char_traitsIcESaIcEED1Ev(ptr noundef nonnull align 8 dereferenceable(32) %.sink) #24
  resume { ptr, i32 } %.pn
}